; Function Attrs: mustprogress nofree norecurse nosync nounwind willreturn memory(argmem: readwrite) uwtable
define void @_ZN5arrow7compute14KeyColumnArrayC2ERKNS0_17KeyColumnMetadataElPhS5_S5_ii(ptr nocapture noundef nonnull writeonly align 8 dereferenceable(72) %this, ptr nocapture noundef nonnull readonly align 4 dereferenceable(8) %metadata, i64 noundef %length, ptr noundef %validity_buffer, ptr noundef %fixed_length_buffer, ptr noundef %var_length_buffer, i32 noundef %bit_offset_validity, i32 noundef %bit_offset_fixed) unnamed_addr #0 align 2 {
entry:
  %metadata_2 = getelementptr inbounds i8, ptr %this, i64 48
  %0 = load i64, ptr %metadata, align 4
  store i64 %0, ptr %metadata_2, align 8
  %length_ = getelementptr inbounds i8, ptr %this, i64 56
  store i64 %length, ptr %length_, align 8
  %mutable_buffers_ = getelementptr inbounds i8, ptr %this, i64 24
  store ptr %validity_buffer, ptr %mutable_buffers_, align 8
  store ptr %validity_buffer, ptr %this, align 8
  %arrayidx5 = getelementptr inbounds i8, ptr %this, i64 32
  store ptr %fixed_length_buffer, ptr %arrayidx5, align 8
  %arrayidx7 = getelementptr inbounds i8, ptr %this, i64 8
  store ptr %fixed_length_buffer, ptr %arrayidx7, align 8
  %arrayidx9 = getelementptr inbounds i8, ptr %this, i64 40
  store ptr %var_length_buffer, ptr %arrayidx9, align 8
  %arrayidx11 = getelementptr inbounds i8, ptr %this, i64 16
  store ptr %var_length_buffer, ptr %arrayidx11, align 8
  %bit_offset_ = getelementptr inbounds i8, ptr %this, i64 64
  store i32 %bit_offset_validity, ptr %bit_offset_, align 8
  %arrayidx14 = getelementptr inbounds i8, ptr %this, i64 68
  store i32 %bit_offset_fixed, ptr %arrayidx14, align 4
  ret void
}